; Function Attrs: mustprogress nounwind uwtable
define void @_ZN3net22CryptoHandshakeMessage16set_minimum_sizeEm(ptr noundef nonnull align 8 captures(none) dereferenceable(72) %0, i64 noundef %1) local_unnamed_addr #3 align 2 personality ptr @__gxx_personality_v0 {
  %3 = getelementptr inbounds nuw i8, ptr %0, i64 56
  %4 = load i64, ptr %3, align 8, !tbaa !39
  %5 = icmp eq i64 %1, %4
  br i1 %5, label %12, label %6

6:                                                ; preds = %2
  %7 = getelementptr inbounds nuw i8, ptr %0, i64 64
  %8 = load ptr, ptr %7, align 8, !tbaa !42
  store ptr null, ptr %7, align 8, !tbaa !42
  %.not.i.i = icmp eq ptr %8, null
  br i1 %.not.i.i, label %_ZNSt10unique_ptrIN3net8QuicDataESt14default_deleteIS1_EE5resetEPS1_.exit, label %_ZNKSt14default_deleteIN3net8QuicDataEEclEPS1_.exit.i.i

_ZNKSt14default_deleteIN3net8QuicDataEEclEPS1_.exit.i.i: ; preds = %6
  %9 = load ptr, ptr %8, align 8, !tbaa !43
  %10 = getelementptr inbounds nuw i8, ptr %9, i64 8
  %11 = load ptr, ptr %10, align 8
  tail call void %11(ptr noundef nonnull align 8 dereferenceable(25) %8) #22
  br label %_ZNSt10unique_ptrIN3net8QuicDataESt14default_deleteIS1_EE5resetEPS1_.exit

_ZNSt10unique_ptrIN3net8QuicDataESt14default_deleteIS1_EE5resetEPS1_.exit: ; preds = %6, %_ZNKSt14default_deleteIN3net8QuicDataEEclEPS1_.exit.i.i
  store i64 %1, ptr %3, align 8, !tbaa !39
  br label %12

12:                                               ; preds = %2, %_ZNSt10unique_ptrIN3net8QuicDataESt14default_deleteIS1_EE5resetEPS1_.exit
  ret void
}